; Function Attrs: nounwind uwtable
define dso_local void @ic_term_write(ptr noundef %0) local_unnamed_addr #0 {
  %2 = load ptr, ptr @rpenv, align 8, !tbaa !108
  %3 = icmp eq ptr %2, null
  br i1 %3, label %4, label %ic_get_env.exit.thread5

4:                                                ; preds = %1
  %5 = tail call fastcc ptr @ic_env_create(ptr noundef null, ptr noundef null, ptr noundef null)
  store ptr %5, ptr @rpenv, align 8, !tbaa !108
  %.not.i = icmp eq ptr %5, null
  br i1 %.not.i, label %term_write.exit, label %ic_get_env.exit

ic_get_env.exit:                                  ; preds = %4
  %6 = tail call i32 @atexit(ptr noundef nonnull @ic_atexit) #32
  %.pre.i = load ptr, ptr @rpenv, align 8, !tbaa !108
  %7 = icmp eq ptr %.pre.i, null
  br i1 %7, label %term_write.exit, label %ic_get_env.exit.thread5

ic_get_env.exit.thread5:                          ; preds = %1, %ic_get_env.exit
  %8 = phi ptr [ %.pre.i, %ic_get_env.exit ], [ %2, %1 ]
  %9 = getelementptr inbounds nuw i8, ptr %8, i64 16
  %10 = load ptr, ptr %9, align 8, !tbaa !124
  %11 = icmp eq ptr %10, null
  %12 = icmp eq ptr %0, null
  %or.cond = or i1 %12, %11
  br i1 %or.cond, label %term_write.exit, label %13

13:                                               ; preds = %ic_get_env.exit.thread5
  %14 = load i8, ptr %0, align 1, !tbaa !4
  %15 = icmp eq i8 %14, 0
  br i1 %15, label %term_write.exit, label %ic_strlen.exit.i

ic_strlen.exit.i:                                 ; preds = %13
  %16 = tail call i64 @strlen(ptr noundef nonnull readonly dereferenceable(1) %0) #33
  %17 = tail call noundef range(i64 0, -9223372036854775808) i64 @llvm.smax.i64(i64 %16, i64 0)
  tail call fastcc void @term_write_n(ptr noundef nonnull %10, ptr noundef nonnull %0, i64 noundef %17)
  br label %term_write.exit

term_write.exit:                                  ; preds = %4, %ic_strlen.exit.i, %13, %ic_get_env.exit.thread5, %ic_get_env.exit
  ret void
}